; Function Attrs: nounwind uwtable
define internal fastcc void @PrintOutput(ptr noundef %0, double noundef %1, ptr noundef %2) unnamed_addr #0 {
  %4 = alloca double, align 8
  %5 = alloca i64, align 8
  %6 = alloca i64, align 8
  %7 = alloca i64, align 8
  %8 = alloca i64, align 8
  %9 = alloca i64, align 8
  %10 = alloca i32, align 4
  call void @llvm.lifetime.start.p0(i64 8, ptr nonnull %4) #9
  call void @llvm.lifetime.start.p0(i64 8, ptr nonnull %5) #9
  call void @llvm.lifetime.start.p0(i64 8, ptr nonnull %6) #9
  call void @llvm.lifetime.start.p0(i64 8, ptr nonnull %7) #9
  call void @llvm.lifetime.start.p0(i64 8, ptr nonnull %8) #9
  call void @llvm.lifetime.start.p0(i64 8, ptr nonnull %9) #9
  call void @llvm.lifetime.start.p0(i64 4, ptr nonnull %10) #9
  %11 = tail call double @N_VMaxNorm(ptr noundef %2) #9
  %12 = call i32 @IDAGetLastOrder(ptr noundef %0, ptr noundef nonnull %10) #9
  %13 = icmp slt i32 %12, 0
  br i1 %13, label %14, label %check_retval.exit

14:                                               ; preds = %3
  %15 = load ptr, ptr @stderr, align 8, !tbaa !4
  %16 = call i32 (ptr, ptr, ...) @fprintf(ptr noundef %15, ptr noundef nonnull @.str.40, ptr noundef nonnull @.str.31, i32 noundef %12) #10
  br label %check_retval.exit

check_retval.exit:                                ; preds = %3, %14
  %17 = call i32 @IDAGetNumSteps(ptr noundef %0, ptr noundef nonnull %5) #9
  %18 = icmp slt i32 %17, 0
  br i1 %18, label %19, label %check_retval.exit11

19:                                               ; preds = %check_retval.exit
  %20 = load ptr, ptr @stderr, align 8, !tbaa !4
  %21 = call i32 (ptr, ptr, ...) @fprintf(ptr noundef %20, ptr noundef nonnull @.str.40, ptr noundef nonnull @.str.32, i32 noundef %17) #10
  br label %check_retval.exit11

check_retval.exit11:                              ; preds = %check_retval.exit, %19
  %22 = call i32 @IDAGetNumNonlinSolvIters(ptr noundef %0, ptr noundef nonnull %6) #9
  %23 = icmp slt i32 %22, 0
  br i1 %23, label %24, label %check_retval.exit13

24:                                               ; preds = %check_retval.exit11
  %25 = load ptr, ptr @stderr, align 8, !tbaa !4
  %26 = call i32 (ptr, ptr, ...) @fprintf(ptr noundef %25, ptr noundef nonnull @.str.40, ptr noundef nonnull @.str.33, i32 noundef %22) #10
  br label %check_retval.exit13

check_retval.exit13:                              ; preds = %check_retval.exit11, %24
  %27 = call i32 @IDAGetNumResEvals(ptr noundef %0, ptr noundef nonnull %8) #9
  %28 = icmp slt i32 %27, 0
  br i1 %28, label %29, label %check_retval.exit15

29:                                               ; preds = %check_retval.exit13
  %30 = load ptr, ptr @stderr, align 8, !tbaa !4
  %31 = call i32 (ptr, ptr, ...) @fprintf(ptr noundef %30, ptr noundef nonnull @.str.40, ptr noundef nonnull @.str.34, i32 noundef %27) #10
  br label %check_retval.exit15

check_retval.exit15:                              ; preds = %check_retval.exit13, %29
  %32 = call i32 @IDAGetLastStep(ptr noundef %0, ptr noundef nonnull %4) #9
  %33 = icmp slt i32 %32, 0
  br i1 %33, label %34, label %check_retval.exit17

34:                                               ; preds = %check_retval.exit15
  %35 = load ptr, ptr @stderr, align 8, !tbaa !4
  %36 = call i32 (ptr, ptr, ...) @fprintf(ptr noundef %35, ptr noundef nonnull @.str.40, ptr noundef nonnull @.str.35, i32 noundef %32) #10
  br label %check_retval.exit17

check_retval.exit17:                              ; preds = %check_retval.exit15, %34
  %37 = call i32 @IDAGetNumJacEvals(ptr noundef %0, ptr noundef nonnull %7) #9
  %38 = icmp slt i32 %37, 0
  br i1 %38, label %39, label %check_retval.exit19

39:                                               ; preds = %check_retval.exit17
  %40 = load ptr, ptr @stderr, align 8, !tbaa !4
  %41 = call i32 (ptr, ptr, ...) @fprintf(ptr noundef %40, ptr noundef nonnull @.str.40, ptr noundef nonnull @.str.36, i32 noundef %37) #10
  br label %check_retval.exit19

check_retval.exit19:                              ; preds = %check_retval.exit17, %39
  %42 = call i32 @IDAGetNumLinResEvals(ptr noundef %0, ptr noundef nonnull %9) #9
  %43 = icmp slt i32 %42, 0
  br i1 %43, label %44, label %check_retval.exit21

44:                                               ; preds = %check_retval.exit19
  %45 = load ptr, ptr @stderr, align 8, !tbaa !4
  %46 = call i32 (ptr, ptr, ...) @fprintf(ptr noundef %45, ptr noundef nonnull @.str.40, ptr noundef nonnull @.str.37, i32 noundef %42) #10
  br label %check_retval.exit21

check_retval.exit21:                              ; preds = %check_retval.exit19, %44
  %47 = load i32, ptr %10, align 4, !tbaa !20
  %48 = load i64, ptr %5, align 8, !tbaa !19
  %49 = load i64, ptr %6, align 8, !tbaa !19
  %50 = load i64, ptr %7, align 8, !tbaa !19
  %51 = load i64, ptr %8, align 8, !tbaa !19
  %52 = load i64, ptr %9, align 8, !tbaa !19
  %53 = load double, ptr %4, align 8, !tbaa !18
  %54 = call i32 (ptr, ...) @printf(ptr noundef nonnull dereferenceable(1) @.str.38, double noundef %1, double noundef %11, i32 noundef %47, i64 noundef %48, i64 noundef %49, i64 noundef %50, i64 noundef %51, i64 noundef %52, double noundef %53)
  call void @llvm.lifetime.end.p0(i64 4, ptr nonnull %10) #9
  call void @llvm.lifetime.end.p0(i64 8, ptr nonnull %9) #9
  call void @llvm.lifetime.end.p0(i64 8, ptr nonnull %8) #9
  call void @llvm.lifetime.end.p0(i64 8, ptr nonnull %7) #9
  call void @llvm.lifetime.end.p0(i64 8, ptr nonnull %6) #9
  call void @llvm.lifetime.end.p0(i64 8, ptr nonnull %5) #9
  call void @llvm.lifetime.end.p0(i64 8, ptr nonnull %4) #9
  ret void
}